target datalayout = "e-m:e-p270:32:32-p271:32:32-p272:64:64-i64:64-i128:128-f80:128-n8:16:32:64-S128"
target triple = "x86_64-pc-linux-gnu"

%struct._spdu_info_t = type { i8, i8, i8 }
%struct.reassembly_table = type { ptr, ptr, ptr, ptr, ptr }
%struct.reassembly_table_functions = type { ptr, ptr, ptr, ptr, ptr, ptr }
%struct._apdu_info_t = type { i32, i32, i32, i8, i16, i8, ptr }

@spdu_table = internal global ptr null, align 8
@apdu_table = internal global ptr null, align 8
@.str.580 = private unnamed_addr constant [21 x i8] c"DVB Common Interface\00", align 1
@.str.581 = private unnamed_addr constant [7 x i8] c"DVB-CI\00", align 1
@.str.582 = private unnamed_addr constant [7 x i8] c"dvb-ci\00", align 1
@proto_dvbci = internal global i32 0, align 4
@.str.583 = private unnamed_addr constant [4 x i8] c"sek\00", align 1
@.str.584 = private unnamed_addr constant [19 x i8] c"SAC Encryption Key\00", align 1
@.str.585 = private unnamed_addr constant [34 x i8] c"SAC Encryption Key (16 hex bytes)\00", align 1
@dvbci_sek = internal global ptr null, align 8
@.str.586 = private unnamed_addr constant [4 x i8] c"siv\00", align 1
@.str.587 = private unnamed_addr constant [16 x i8] c"SAC Init Vector\00", align 1
@.str.588 = private unnamed_addr constant [31 x i8] c"SAC Init Vector (16 hex bytes)\00", align 1
@dvbci_siv = internal global ptr null, align 8
@.str.589 = private unnamed_addr constant [16 x i8] c"dissect_lsc_msg\00", align 1
@.str.590 = private unnamed_addr constant [21 x i8] c"Dissect LSC messages\00", align 1
@.str.591 = private unnamed_addr constant [184 x i8] c"Dissect the content of messages transmitted on the Low-Speed Communication resource. This requires a dissector for the protocol and target port contained in the connection descriptor.\00", align 1
@dvbci_dissect_lsc_msg = internal global i8 0, align 1
@.str.592 = private unnamed_addr constant [22 x i8] c"dvb-ci.sas.app_id_str\00", align 1
@.str.593 = private unnamed_addr constant [19 x i8] c"SAS application id\00", align 1
@sas_msg_dissector_table = internal global ptr null, align 8
@tpdu_reassembly_table = internal global %struct.reassembly_table zeroinitializer, align 8
@addresses_reassembly_table_functions = external constant %struct.reassembly_table_functions, align 8
@spdu_reassembly_table = internal global %struct.reassembly_table zeroinitializer, align 8
@.str.594 = private unnamed_addr constant [15 x i8] c"ciplus_sac_msg\00", align 1
@.str.595 = private unnamed_addr constant [16 x i8] c"CI+ SAC message\00", align 1
@exported_pdu_tap = internal global i32 -1, align 4
@dvbci_handle = internal global ptr null, align 8

; Function Attrs: null_pointer_is_valid sspstrong uwtable
define hidden void @proto_register_dvbci() #0 {
  %1 = alloca i32, align 4
  %2 = alloca ptr, align 8
  %3 = alloca ptr, align 8
  call void @llvm.lifetime.start.p0(i64 4, ptr %1) #11
  call void @llvm.lifetime.start.p0(i64 8, ptr %2) #11
  call void @llvm.lifetime.start.p0(i64 8, ptr %3) #11
  %4 = call ptr @g_hash_table_new(ptr noundef @g_direct_hash, ptr noundef @g_direct_equal)
  store ptr %4, ptr @spdu_table, align 8
  store i32 0, ptr %1, align 4
  br label %5

5:                                                ; preds = %23, %0
  %6 = load i32, ptr %1, align 4
  %7 = zext i32 %6 to i64
  %8 = icmp ult i64 %7, 7
  br i1 %8, label %9, label %26

9:                                                ; preds = %5
  %10 = load ptr, ptr @spdu_table, align 8
  %11 = load i32, ptr %1, align 4
  %12 = zext i32 %11 to i64
  %13 = getelementptr [7 x %struct._spdu_info_t], ptr @spdu_info, i64 0, i64 %12
  %14 = getelementptr inbounds nuw %struct._spdu_info_t, ptr %13, i32 0, i32 0
  %15 = load i8, ptr %14, align 1
  %16 = zext i8 %15 to i32
  %17 = zext i32 %16 to i64
  %18 = inttoptr i64 %17 to ptr
  %19 = load i32, ptr %1, align 4
  %20 = zext i32 %19 to i64
  %21 = getelementptr [7 x %struct._spdu_info_t], ptr @spdu_info, i64 0, i64 %20
  %22 = call i32 @g_hash_table_insert(ptr noundef %10, ptr noundef %18, ptr noundef %21)
  br label %23

23:                                               ; preds = %9
  %24 = load i32, ptr %1, align 4
  %25 = add i32 %24, 1
  store i32 %25, ptr %1, align 4
  br label %5, !llvm.loop !6

26:                                               ; preds = %5
  %27 = call ptr @g_hash_table_new(ptr noundef @g_direct_hash, ptr noundef @g_direct_equal)
  store ptr %27, ptr @apdu_table, align 8
  store i32 0, ptr %1, align 4
  br label %28

28:                                               ; preds = %45, %26
  %29 = load i32, ptr %1, align 4
  %30 = zext i32 %29 to i64
  %31 = icmp ult i64 %30, 92
  br i1 %31, label %32, label %48

32:                                               ; preds = %28
  %33 = load ptr, ptr @apdu_table, align 8
  %34 = load i32, ptr %1, align 4
  %35 = zext i32 %34 to i64
  %36 = getelementptr [92 x %struct._apdu_info_t], ptr @apdu_info, i64 0, i64 %35
  %37 = getelementptr inbounds nuw %struct._apdu_info_t, ptr %36, i32 0, i32 0
  %38 = load i32, ptr %37, align 16
  %39 = zext i32 %38 to i64
  %40 = inttoptr i64 %39 to ptr
  %41 = load i32, ptr %1, align 4
  %42 = zext i32 %41 to i64
  %43 = getelementptr [92 x %struct._apdu_info_t], ptr @apdu_info, i64 0, i64 %42
  %44 = call i32 @g_hash_table_insert(ptr noundef %33, ptr noundef %40, ptr noundef %43)
  br label %45

45:                                               ; preds = %32
  %46 = load i32, ptr %1, align 4
  %47 = add i32 %46, 1
  store i32 %47, ptr %1, align 4
  br label %28, !llvm.loop !8

48:                                               ; preds = %28
  %49 = call i32 @proto_register_protocol(ptr noundef @.str.580, ptr noundef @.str.581, ptr noundef @.str.582)
  store i32 %49, ptr @proto_dvbci, align 4
  %50 = load i32, ptr @proto_dvbci, align 4
  call void @proto_register_field_array(i32 noundef %50, ptr noundef @proto_register_dvbci.hf, i32 noundef 262)
  call void @proto_register_subtree_array(ptr noundef @proto_register_dvbci.ett, i32 noundef 23)
  %51 = load i32, ptr @proto_dvbci, align 4
  %52 = call ptr @expert_register_protocol(i32 noundef %51)
  store ptr %52, ptr %3, align 8
  %53 = load ptr, ptr %3, align 8
  call void @expert_register_field_array(ptr noundef %53, ptr noundef @proto_register_dvbci.ei, i32 noundef 32)
  %54 = load i32, ptr @proto_dvbci, align 4
  %55 = call ptr @prefs_register_protocol(i32 noundef %54, ptr noundef @proto_reg_handoff_dvbci)
  store ptr %55, ptr %2, align 8
  %56 = load ptr, ptr %2, align 8
  call void @prefs_register_string_preference(ptr noundef %56, ptr noundef @.str.583, ptr noundef @.str.584, ptr noundef @.str.585, ptr noundef @dvbci_sek)
  %57 = load ptr, ptr %2, align 8
  call void @prefs_register_string_preference(ptr noundef %57, ptr noundef @.str.586, ptr noundef @.str.587, ptr noundef @.str.588, ptr noundef @dvbci_siv)
  %58 = load ptr, ptr %2, align 8
  call void @prefs_register_bool_preference(ptr noundef %58, ptr noundef @.str.589, ptr noundef @.str.590, ptr noundef @.str.591, ptr noundef @dvbci_dissect_lsc_msg)
  %59 = load i32, ptr @proto_dvbci, align 4
  %60 = call ptr @register_dissector_table(ptr noundef @.str.592, ptr noundef @.str.593, i32 noundef %59, i32 noundef 26, i32 noundef 0)
  store ptr %60, ptr @sas_msg_dissector_table, align 8
  call void @register_init_routine(ptr noundef @dvbci_init)
  call void @reassembly_table_register(ptr noundef @tpdu_reassembly_table, ptr noundef @addresses_reassembly_table_functions)
  call void @reassembly_table_register(ptr noundef @spdu_reassembly_table, ptr noundef @addresses_reassembly_table_functions)
  %61 = load i32, ptr @proto_dvbci, align 4
  %62 = call ptr @register_dissector_with_description(ptr noundef @.str.594, ptr noundef @.str.595, ptr noundef @dissect_dvbci_exported_sac_msg, i32 noundef %61)
  %63 = call i32 @register_export_pdu_tap(ptr noundef @.str.581)
  store i32 %63, ptr @exported_pdu_tap, align 4
  call void @register_shutdown_routine(ptr noundef @dvbci_shutdown)
  %64 = load i32, ptr @proto_dvbci, align 4
  %65 = call ptr @register_dissector(ptr noundef @.str.582, ptr noundef @dissect_dvbci, i32 noundef %64)
  store ptr %65, ptr @dvbci_handle, align 8
  call void @llvm.lifetime.end.p0(i64 8, ptr %3) #11
  call void @llvm.lifetime.end.p0(i64 8, ptr %2) #11
  call void @llvm.lifetime.end.p0(i64 4, ptr %1) #11
  ret void
}