; Function Attrs: null_pointer_is_valid sspstrong uwtable
define hidden void @proto_register_dvbci() local_unnamed_addr #1 {
  %1 = tail call ptr @g_hash_table_new(ptr noundef nonnull @g_direct_hash, ptr noundef nonnull @g_direct_equal)
  store ptr %1, ptr @spdu_table, align 8
  br label %2

2:                                                ; preds = %0, %2
  %indvars.iv = phi i64 [ 0, %0 ], [ %indvars.iv.next, %2 ]
  %3 = load ptr, ptr @spdu_table, align 8
  %4 = getelementptr [7 x %struct._spdu_info_t], ptr @spdu_info, i64 0, i64 %indvars.iv
  %5 = load i8, ptr %4, align 1
  %6 = zext i8 %5 to i64
  %7 = inttoptr i64 %6 to ptr
  %8 = tail call i32 @g_hash_table_insert(ptr noundef %3, ptr noundef %7, ptr noundef %4)
  %indvars.iv.next = add nuw nsw i64 %indvars.iv, 1
  %exitcond.not = icmp eq i64 %indvars.iv.next, 7
  br i1 %exitcond.not, label %9, label %2, !llvm.loop !6

9:                                                ; preds = %2
  %10 = tail call ptr @g_hash_table_new(ptr noundef nonnull @g_direct_hash, ptr noundef nonnull @g_direct_equal)
  store ptr %10, ptr @apdu_table, align 8
  br label %11

11:                                               ; preds = %9, %11
  %indvars.iv16 = phi i64 [ 0, %9 ], [ %indvars.iv.next17, %11 ]
  %12 = load ptr, ptr @apdu_table, align 8
  %13 = getelementptr [92 x %struct._apdu_info_t], ptr @apdu_info, i64 0, i64 %indvars.iv16
  %14 = load i32, ptr %13, align 16
  %15 = zext i32 %14 to i64
  %16 = inttoptr i64 %15 to ptr
  %17 = tail call i32 @g_hash_table_insert(ptr noundef %12, ptr noundef %16, ptr noundef %13)
  %indvars.iv.next17 = add nuw nsw i64 %indvars.iv16, 1
  %exitcond19.not = icmp eq i64 %indvars.iv.next17, 92
  br i1 %exitcond19.not, label %18, label %11, !llvm.loop !8

18:                                               ; preds = %11
  %19 = tail call i32 @proto_register_protocol(ptr noundef nonnull @.str.580, ptr noundef nonnull @.str.581, ptr noundef nonnull @.str.582)
  store i32 %19, ptr @proto_dvbci, align 4
  tail call void @proto_register_field_array(i32 noundef %19, ptr noundef nonnull @proto_register_dvbci.hf, i32 noundef 262)
  tail call void @proto_register_subtree_array(ptr noundef nonnull @proto_register_dvbci.ett, i32 noundef 23)
  %20 = load i32, ptr @proto_dvbci, align 4
  %21 = tail call ptr @expert_register_protocol(i32 noundef %20)
  tail call void @expert_register_field_array(ptr noundef %21, ptr noundef nonnull @proto_register_dvbci.ei, i32 noundef 32)
  %22 = load i32, ptr @proto_dvbci, align 4
  %23 = tail call ptr @prefs_register_protocol(i32 noundef %22, ptr noundef nonnull @proto_reg_handoff_dvbci)
  tail call void @prefs_register_string_preference(ptr noundef %23, ptr noundef nonnull @.str.583, ptr noundef nonnull @.str.584, ptr noundef nonnull @.str.585, ptr noundef nonnull @dvbci_sek)
  tail call void @prefs_register_string_preference(ptr noundef %23, ptr noundef nonnull @.str.586, ptr noundef nonnull @.str.587, ptr noundef nonnull @.str.588, ptr noundef nonnull @dvbci_siv)
  tail call void @prefs_register_bool_preference(ptr noundef %23, ptr noundef nonnull @.str.589, ptr noundef nonnull @.str.590, ptr noundef nonnull @.str.591, ptr noundef nonnull @dvbci_dissect_lsc_msg)
  %24 = load i32, ptr @proto_dvbci, align 4
  %25 = tail call ptr @register_dissector_table(ptr noundef nonnull @.str.592, ptr noundef nonnull @.str.593, i32 noundef %24, i32 noundef 26, i32 noundef 0)
  store ptr %25, ptr @sas_msg_dissector_table, align 8
  tail call void @register_init_routine(ptr noundef nonnull @dvbci_init)
  tail call void @reassembly_table_register(ptr noundef nonnull @tpdu_reassembly_table, ptr noundef nonnull @addresses_reassembly_table_functions)
  tail call void @reassembly_table_register(ptr noundef nonnull @spdu_reassembly_table, ptr noundef nonnull @addresses_reassembly_table_functions)
  %26 = load i32, ptr @proto_dvbci, align 4
  %27 = tail call ptr @register_dissector_with_description(ptr noundef nonnull @.str.594, ptr noundef nonnull @.str.595, ptr noundef nonnull @dissect_dvbci_exported_sac_msg, i32 noundef %26)
  %28 = tail call i32 @register_export_pdu_tap(ptr noundef nonnull @.str.581)
  store i32 %28, ptr @exported_pdu_tap, align 4
  tail call void @register_shutdown_routine(ptr noundef nonnull @dvbci_shutdown)
  %29 = load i32, ptr @proto_dvbci, align 4
  %30 = tail call ptr @register_dissector(ptr noundef nonnull @.str.582, ptr noundef nonnull @dissect_dvbci, i32 noundef %29)
  store ptr %30, ptr @dvbci_handle, align 8
  ret void
}